target datalayout = "e-m:e-p270:32:32-p271:32:32-p272:64:64-i64:64-i128:128-f80:128-n8:16:32:64-S128"
target triple = "x86_64-pc-linux-gnu"

%struct.slurm_conf_t = type { i64, ptr, i16, ptr, ptr, ptr, ptr, ptr, i16, ptr, ptr, ptr, ptr, ptr, ptr, ptr, i16, ptr, ptr, ptr, ptr, i16, ptr, ptr, ptr, i64, ptr, ptr, ptr, ptr, i16, ptr, ptr, i16, i32, ptr, i32, ptr, i32, i32, ptr, ptr, i64, i64, ptr, i16, i16, ptr, i32, i32, ptr, i32, ptr, i32, i16, i16, i16, ptr, i16, i16, ptr, ptr, i32, i16, i16, ptr, i32, i16, ptr, ptr, ptr, ptr, i16, ptr, ptr, ptr, ptr, i32, ptr, ptr, ptr, ptr, i16, i16, ptr, i32, i32, i32, i16, i16, ptr, ptr, i16, ptr, ptr, i32, i32, i32, i32, i32, i64, i32, i32, i16, ptr, ptr, i32, ptr, ptr, ptr, i16, i32, ptr, ptr, i16, ptr, ptr, i32, i16, ptr, ptr, ptr, ptr, i32, i32, i16, i16, i32, ptr, i16, ptr, i32, i32, i32, i32, i32, i32, ptr, i16, ptr, ptr, i32, i16, ptr, i32, i16, i16, ptr, ptr, ptr, i16, ptr, ptr, ptr, ptr, i16, i16, ptr, i16, ptr, i16, ptr, i16, ptr, i16, ptr, ptr, ptr, ptr, i16, ptr, ptr, ptr, i32, ptr, i32, ptr, ptr, i16, ptr, ptr, i32, i16, ptr, ptr, i16, i16, ptr, i16, ptr, ptr, ptr, i32, ptr, i16, i16, ptr, ptr, ptr, ptr, ptr, ptr, ptr, ptr, i16, i32, i16, ptr, ptr, ptr, ptr, i32, ptr, ptr, ptr, i16, ptr, ptr, ptr, i16, ptr, i16, ptr, i16, i16, ptr }
%struct.sockaddr_storage = type { i16, [118 x i8], i64 }
%struct.forward = type { %struct.slurm_node_alias_addrs_t, i16, i16, ptr, i32, i16, i16 }
%struct.slurm_node_alias_addrs_t = type { i64, ptr, ptr, i32, ptr }
%struct.slurm_msg = type { %struct.sockaddr_storage, ptr, i32, i32, i32, i8, i32, i8, i32, ptr, ptr, i32, ptr, ptr, i16, i8, i16, i16, %struct.forward, ptr, %struct.sockaddr_storage, ptr }
%struct.ret_data_info = type { i16, i32, ptr, ptr }
%struct.forward_data_msg = type { ptr, i32, ptr }

@slurm_conf = external global %struct.slurm_conf_t, align 8
@.str.76 = private unnamed_addr constant [41 x i8] c"NET: %s: nodelist=%s, address=%s, len=%u\00", align 1
@__func__.slurm_forward_data = private unnamed_addr constant [19 x i8] c"slurm_forward_data\00", align 1
@.str.77 = private unnamed_addr constant [41 x i8] c"slurm_forward_data: no list was returned\00", align 1

; Function Attrs: nounwind uwtable
define dso_local void @slurm_msg_set_r_uid(ptr noundef %0, i32 noundef %1) #0 {
  %3 = alloca ptr, align 8
  %4 = alloca i32, align 4
  store ptr %0, ptr %3, align 8
  store i32 %1, ptr %4, align 4
  %5 = load i32, ptr %4, align 4
  %6 = load ptr, ptr %3, align 8
  %7 = getelementptr inbounds nuw %struct.slurm_msg, ptr %6, i32 0, i32 6
  store i32 %5, ptr %7, align 8
  %8 = load ptr, ptr %3, align 8
  %9 = getelementptr inbounds nuw %struct.slurm_msg, ptr %8, i32 0, i32 7
  store i8 1, ptr %9, align 4
  ret void
}

; Function Attrs: nounwind uwtable
define dso_local i32 @slurm_forward_data(ptr noundef %0, ptr noundef %1, i32 noundef %2, ptr noundef %3) #0 {
  %5 = alloca ptr, align 8
  %6 = alloca ptr, align 8
  %7 = alloca i32, align 4
  %8 = alloca ptr, align 8
  %9 = alloca ptr, align 8
  %10 = alloca i32, align 4
  %11 = alloca i32, align 4
  %12 = alloca ptr, align 8
  %13 = alloca %struct.slurm_msg, align 8
  %14 = alloca %struct.forward_data_msg, align 8
  %15 = alloca ptr, align 8
  %16 = alloca i8, align 1
  store ptr %0, ptr %5, align 8
  store ptr %1, ptr %6, align 8
  store i32 %2, ptr %7, align 4
  store ptr %3, ptr %8, align 8
  call void @llvm.lifetime.start.p0(i64 8, ptr %9) #12
  store ptr null, ptr %9, align 8
  call void @llvm.lifetime.start.p0(i64 4, ptr %10) #12
  store i32 0, ptr %10, align 4
  call void @llvm.lifetime.start.p0(i64 4, ptr %11) #12
  store i32 0, ptr %11, align 4
  call void @llvm.lifetime.start.p0(i64 8, ptr %12) #12
  store ptr null, ptr %12, align 8
  call void @llvm.lifetime.start.p0(i64 424, ptr %13) #12
  call void @llvm.lifetime.start.p0(i64 24, ptr %14) #12
  call void @llvm.lifetime.start.p0(i64 8, ptr %15) #12
  store ptr null, ptr %15, align 8
  call void @llvm.lifetime.start.p0(i64 1, ptr %16) #12
  store i8 0, ptr %16, align 1
  call void @slurm_msg_t_init(ptr noundef %13)
  br label %17

17:                                               ; preds = %4
  %18 = load i64, ptr getelementptr inbounds nuw (%struct.slurm_conf_t, ptr @slurm_conf, i32 0, i32 42), align 8
  %19 = and i64 %18, 1024
  %20 = icmp ne i64 %19, 0
  br i1 %20, label %21, label %33

21:                                               ; preds = %17
  br label %22

22:                                               ; preds = %21
  %23 = call i32 @get_log_level()
  %24 = icmp sge i32 %23, 4
  br i1 %24, label %25, label %30

25:                                               ; preds = %22
  %26 = load ptr, ptr %5, align 8
  %27 = load ptr, ptr %26, align 8
  %28 = load ptr, ptr %6, align 8
  %29 = load i32, ptr %7, align 4
  call void (i32, ptr, ...) @log_var(i32 noundef 4, ptr noundef @.str.76, ptr noundef @__func__.slurm_forward_data, ptr noundef %27, ptr noundef %28, i32 noundef %29)
  br label %30

30:                                               ; preds = %25, %22
  br label %31

31:                                               ; preds = %30
  br label %32

32:                                               ; preds = %31
  br label %33

33:                                               ; preds = %32, %17
  br label %34

34:                                               ; preds = %33
  br label %35

35:                                               ; preds = %34
  %36 = load ptr, ptr %6, align 8
  %37 = getelementptr inbounds nuw %struct.forward_data_msg, ptr %14, i32 0, i32 0
  store ptr %36, ptr %37, align 8
  %38 = load i32, ptr %7, align 4
  %39 = getelementptr inbounds nuw %struct.forward_data_msg, ptr %14, i32 0, i32 1
  store i32 %38, ptr %39, align 8
  %40 = load ptr, ptr %8, align 8
  %41 = getelementptr inbounds nuw %struct.forward_data_msg, ptr %14, i32 0, i32 2
  store ptr %40, ptr %41, align 8
  call void @slurm_msg_set_r_uid(ptr noundef %13, i32 noundef -1)
  %42 = getelementptr inbounds nuw %struct.slurm_msg, ptr %13, i32 0, i32 16
  store i16 5029, ptr %42, align 4
  %43 = getelementptr inbounds nuw %struct.slurm_msg, ptr %13, i32 0, i32 13
  store ptr %14, ptr %43, align 8
  %44 = load ptr, ptr %5, align 8
  %45 = load ptr, ptr %44, align 8
  %46 = call ptr @slurm_send_recv_msgs(ptr noundef %45, ptr noundef %13, i32 noundef 0)
  store ptr %46, ptr %9, align 8
  %47 = icmp ne ptr %46, null
  br i1 %47, label %48, label %92

48:                                               ; preds = %35
  %49 = load ptr, ptr %9, align 8
  %50 = call i32 @list_count(ptr noundef %49)
  %51 = icmp sgt i32 %50, 1
  br i1 %51, label %52, label %53

52:                                               ; preds = %48
  store i8 1, ptr %16, align 1
  br label %53

53:                                               ; preds = %52, %48
  br label %54

54:                                               ; preds = %89, %53
  %55 = load ptr, ptr %9, align 8
  %56 = call ptr @list_pop(ptr noundef %55)
  store ptr %56, ptr %12, align 8
  %57 = icmp ne ptr %56, null
  br i1 %57, label %58, label %91

58:                                               ; preds = %54
  %59 = load ptr, ptr %12, align 8
  %60 = getelementptr inbounds nuw %struct.ret_data_info, ptr %59, i32 0, i32 0
  %61 = load i16, ptr %60, align 8
  %62 = zext i16 %61 to i32
  %63 = load ptr, ptr %12, align 8
  %64 = getelementptr inbounds nuw %struct.ret_data_info, ptr %63, i32 0, i32 3
  %65 = load ptr, ptr %64, align 8
  %66 = call i32 @slurm_get_return_code(i32 noundef %62, ptr noundef %65)
  store i32 %66, ptr %10, align 4
  %67 = load i32, ptr %10, align 4
  %68 = icmp ne i32 %67, 0
  br i1 %68, label %69, label %89

69:                                               ; preds = %58
  %70 = load i32, ptr %10, align 4
  store i32 %70, ptr %11, align 4
  %71 = load i8, ptr %16, align 1, !range !16, !noundef !17
  %72 = trunc i8 %71 to i1
  br i1 %72, label %73, label %88

73:                                               ; preds = %69
  %74 = load ptr, ptr %15, align 8
  %75 = icmp ne ptr %74, null
  br i1 %75, label %81, label %76

76:                                               ; preds = %73
  %77 = load ptr, ptr %12, align 8
  %78 = getelementptr inbounds nuw %struct.ret_data_info, ptr %77, i32 0, i32 2
  %79 = load ptr, ptr %78, align 8
  %80 = call ptr @hostlist_create(ptr noundef %79)
  store ptr %80, ptr %15, align 8
  br label %87

81:                                               ; preds = %73
  %82 = load ptr, ptr %15, align 8
  %83 = load ptr, ptr %12, align 8
  %84 = getelementptr inbounds nuw %struct.ret_data_info, ptr %83, i32 0, i32 2
  %85 = load ptr, ptr %84, align 8
  %86 = call i32 @hostlist_push_host(ptr noundef %82, ptr noundef %85)
  br label %87

87:                                               ; preds = %81, %76
  br label %88

88:                                               ; preds = %87, %69
  br label %89

89:                                               ; preds = %88, %58
  %90 = load ptr, ptr %12, align 8
  call void @destroy_data_info(ptr noundef %90)
  br label %54, !llvm.loop !27

91:                                               ; preds = %54
  br label %94

92:                                               ; preds = %35
  %93 = call i32 (ptr, ...) @error(ptr noundef @.str.77)
  store i32 -1, ptr %11, align 4
  br label %94

94:                                               ; preds = %92, %91
  %95 = load ptr, ptr %15, align 8
  %96 = icmp ne ptr %95, null
  br i1 %96, label %97, label %104

97:                                               ; preds = %94
  %98 = load ptr, ptr %5, align 8
  call void @slurm_xfree(ptr noundef %98)
  %99 = load ptr, ptr %15, align 8
  call void @hostlist_sort(ptr noundef %99)
  %100 = load ptr, ptr %15, align 8
  %101 = call ptr @hostlist_ranged_string_xmalloc(ptr noundef %100)
  %102 = load ptr, ptr %5, align 8
  store ptr %101, ptr %102, align 8
  %103 = load ptr, ptr %15, align 8
  call void @hostlist_destroy(ptr noundef %103)
  br label %104

104:                                              ; preds = %97, %94
  br label %105

105:                                              ; preds = %104
  %106 = load ptr, ptr %9, align 8
  %107 = icmp ne ptr %106, null
  br i1 %107, label %108, label %110

108:                                              ; preds = %105
  %109 = load ptr, ptr %9, align 8
  call void @list_destroy(ptr noundef %109)
  br label %110

110:                                              ; preds = %108, %105
  store ptr null, ptr %9, align 8
  br label %111

111:                                              ; preds = %110
  br label %112

112:                                              ; preds = %111
  %113 = load i32, ptr %11, align 4
  call void @llvm.lifetime.end.p0(i64 1, ptr %16) #12
  call void @llvm.lifetime.end.p0(i64 8, ptr %15) #12
  call void @llvm.lifetime.end.p0(i64 24, ptr %14) #12
  call void @llvm.lifetime.end.p0(i64 424, ptr %13) #12
  call void @llvm.lifetime.end.p0(i64 8, ptr %12) #12
  call void @llvm.lifetime.end.p0(i64 4, ptr %11) #12
  call void @llvm.lifetime.end.p0(i64 4, ptr %10) #12
  call void @llvm.lifetime.end.p0(i64 8, ptr %9) #12
  ret i32 %113
}