; Function Attrs: nounwind uwtable
define dso_local i32 @slurm_forward_data(ptr noundef %0, ptr noundef %1, i32 noundef %2, ptr noundef %3) local_unnamed_addr #1 {
  %5 = alloca %struct.slurm_msg, align 8
  %6 = alloca %struct.forward_data_msg, align 8
  call void @llvm.lifetime.start.p0(i64 424, ptr nonnull %5) #19
  call void @llvm.lifetime.start.p0(i64 24, ptr nonnull %6) #19
  call void @slurm_msg_t_init(ptr noundef nonnull %5) #19
  %7 = load i64, ptr getelementptr inbounds nuw (i8, ptr @slurm_conf, i64 320), align 8
  %8 = and i64 %7, 1024
  %.not = icmp eq i64 %8, 0
  br i1 %.not, label %14, label %9

9:                                                ; preds = %4
  %10 = call i32 @get_log_level() #19
  %11 = icmp sgt i32 %10, 3
  br i1 %11, label %12, label %14

12:                                               ; preds = %9
  %13 = load ptr, ptr %0, align 8
  call void (i32, ptr, ...) @log_var(i32 noundef 4, ptr noundef nonnull @.str.76, ptr noundef nonnull @__func__.slurm_forward_data, ptr noundef %13, ptr noundef %1, i32 noundef %2) #19
  br label %14

14:                                               ; preds = %9, %12, %4
  store ptr %1, ptr %6, align 8
  %15 = getelementptr inbounds nuw i8, ptr %6, i64 8
  store i32 %2, ptr %15, align 8
  %16 = getelementptr inbounds nuw i8, ptr %6, i64 16
  store ptr %3, ptr %16, align 8
  %17 = getelementptr inbounds nuw i8, ptr %5, i64 152
  store i32 -1, ptr %17, align 8
  %18 = getelementptr inbounds nuw i8, ptr %5, i64 156
  store i8 1, ptr %18, align 4
  %19 = getelementptr inbounds nuw i8, ptr %5, i64 212
  store i16 5029, ptr %19, align 4
  %20 = getelementptr inbounds nuw i8, ptr %5, i64 200
  store ptr %6, ptr %20, align 8
  %21 = load ptr, ptr %0, align 8
  %22 = call ptr @slurm_send_recv_msgs(ptr noundef %21, ptr noundef nonnull %5, i32 noundef 0)
  %.not35 = icmp eq ptr %22, null
  br i1 %.not35, label %51, label %23

23:                                               ; preds = %14
  %24 = call i32 @list_count(ptr noundef nonnull %22) #19
  %25 = call ptr @list_pop(ptr noundef nonnull %22) #19
  %.not3649 = icmp eq ptr %25, null
  br i1 %.not3649, label %._crit_edge.thread, label %.lr.ph

.lr.ph:                                           ; preds = %23
  %.fr54 = freeze i32 %24
  %26 = icmp slt i32 %.fr54, 2
  br i1 %26, label %.lr.ph.split.us, label %.lr.ph.split

.lr.ph.split.us:                                  ; preds = %.lr.ph, %.lr.ph.split.us
  %27 = phi ptr [ %33, %.lr.ph.split.us ], [ %25, %.lr.ph ]
  %.02850.us = phi i32 [ %.028.mux.us, %.lr.ph.split.us ], [ 0, %.lr.ph ]
  %28 = load i16, ptr %27, align 8
  %29 = zext i16 %28 to i32
  %30 = getelementptr inbounds nuw i8, ptr %27, i64 16
  %31 = load ptr, ptr %30, align 8
  %32 = call i32 @slurm_get_return_code(i32 noundef %29, ptr noundef %31) #19
  %.not38.us = icmp eq i32 %32, 0
  %.028.mux.us = select i1 %.not38.us, i32 %.02850.us, i32 %32
  call void @destroy_data_info(ptr noundef nonnull %27) #19
  %33 = call ptr @list_pop(ptr noundef nonnull %22) #19
  %.not36.us = icmp eq ptr %33, null
  br i1 %.not36.us, label %._crit_edge.thread, label %.lr.ph.split.us, !llvm.loop !26

.lr.ph.split:                                     ; preds = %.lr.ph, %47
  %34 = phi ptr [ %48, %47 ], [ %25, %.lr.ph ]
  %.02751 = phi ptr [ %.1, %47 ], [ null, %.lr.ph ]
  %.02850 = phi i32 [ %.129, %47 ], [ 0, %.lr.ph ]
  %35 = load i16, ptr %34, align 8
  %36 = zext i16 %35 to i32
  %37 = getelementptr inbounds nuw i8, ptr %34, i64 16
  %38 = load ptr, ptr %37, align 8
  %39 = call i32 @slurm_get_return_code(i32 noundef %36, ptr noundef %38) #19
  %.not38 = icmp eq i32 %39, 0
  br i1 %.not38, label %47, label %40

40:                                               ; preds = %.lr.ph.split
  %.not39 = icmp eq ptr %.02751, null
  %41 = getelementptr inbounds nuw i8, ptr %34, i64 8
  %42 = load ptr, ptr %41, align 8
  br i1 %.not39, label %43, label %45

43:                                               ; preds = %40
  %44 = call ptr @hostlist_create(ptr noundef %42) #19
  br label %47

45:                                               ; preds = %40
  %46 = call i32 @hostlist_push_host(ptr noundef nonnull %.02751, ptr noundef %42) #19
  br label %47

47:                                               ; preds = %.lr.ph.split, %45, %43
  %.129 = phi i32 [ %39, %45 ], [ %39, %43 ], [ %.02850, %.lr.ph.split ]
  %.1 = phi ptr [ %.02751, %45 ], [ %44, %43 ], [ %.02751, %.lr.ph.split ]
  call void @destroy_data_info(ptr noundef nonnull %34) #19
  %48 = call ptr @list_pop(ptr noundef nonnull %22) #19
  %.not36 = icmp eq ptr %48, null
  br i1 %.not36, label %._crit_edge, label %.lr.ph.split, !llvm.loop !26

._crit_edge:                                      ; preds = %47
  %.not37 = icmp eq ptr %.1, null
  br i1 %.not37, label %._crit_edge.thread, label %49

49:                                               ; preds = %._crit_edge
  call void @slurm_xfree(ptr noundef nonnull %0) #19
  call void @hostlist_sort(ptr noundef nonnull %.1) #19
  %50 = call ptr @hostlist_ranged_string_xmalloc(ptr noundef nonnull %.1) #19
  store ptr %50, ptr %0, align 8
  call void @hostlist_destroy(ptr noundef nonnull %.1) #19
  br label %._crit_edge.thread

51:                                               ; preds = %14
  %52 = call i32 (ptr, ...) @error(ptr noundef nonnull @.str.77) #19
  br label %53

._crit_edge.thread:                               ; preds = %.lr.ph.split.us, %23, %._crit_edge, %49
  %.028.lcssa59 = phi i32 [ %.129, %._crit_edge ], [ %.129, %49 ], [ 0, %23 ], [ %.028.mux.us, %.lr.ph.split.us ]
  call void @list_destroy(ptr noundef nonnull %22) #19
  br label %53

53:                                               ; preds = %51, %._crit_edge.thread
  %.2304448 = phi i32 [ %.028.lcssa59, %._crit_edge.thread ], [ -1, %51 ]
  call void @llvm.lifetime.end.p0(i64 24, ptr nonnull %6) #19
  call void @llvm.lifetime.end.p0(i64 424, ptr nonnull %5) #19
  ret i32 %.2304448
}